Certificate:
    Data:
        Version: 3 (0x2)
        Serial Number: 1 (0x1)
        Signature Algorithm: sha256WithRSAEncryption
        Issuer: C=FR, ST=Radius, L=Somewhere, O=Example Inc./emailAddress=admin@example.org, CN=Example Certificate Authority
        Validity
            Not Before: Dec  5 06:33:08 2025 GMT
            Not After : Feb  3 06:33:08 2026 GMT
        Subject: C=FR, ST=Radius, O=Example Inc., CN=Example Server Certificate/emailAddress=admin@example.org
        Subject Public Key Info:
            Public Key Algorithm: rsaEncryption
                Public-Key: (2048 bit)
                Modulus:
                    00:e3:3a:f2:de:90:12:30:47:94:dc:fa:2f:cf:59:
                    ce:56:a5:a8:3e:57:e4:22:3b:98:95:24:c0:7f:7f:
                    da:35:b3:ea:e8:22:4b:51:48:51:f4:f3:99:9b:d1:
                    68:fc:c8:e3:eb:b5:6f:80:74:07:1b:54:6a:65:f9:
                    c7:e0:30:3e:e6:8a:ee:9e:7f:7c:c8:bc:9b:51:ed:
                    6f:bb:20:10:40:2d:53:d7:b2:e4:1b:74:8a:b8:c3:
                    8f:6a:57:2f:f7:df:98:3e:41:a3:d5:55:4b:53:2b:
                    88:24:0f:26:87:c6:07:df:53:ea:52:84:6f:92:f5:
                    d8:35:84:91:6e:96:a4:b0:95:aa:27:4e:5a:a9:ff:
                    12:1f:5d:ff:3c:b9:ed:e6:05:23:33:7b:44:0f:24:
                    d6:f3:fd:41:72:50:67:7f:fe:24:cd:6c:3e:22:5f:
                    e6:1a:34:c2:9d:ce:16:75:36:6b:e5:88:cb:ed:b4:
                    cf:8c:9d:ab:52:23:89:fe:d4:e2:30:59:a4:b4:3f:
                    fc:87:71:bf:35:89:06:ff:63:d2:e0:fb:74:cc:cf:
                    cf:87:29:f7:9f:da:94:8b:0a:ea:86:82:67:b2:05:
                    2f:dc:fb:9c:86:0e:94:d6:76:ff:27:01:e0:90:77:
                    34:fd:b0:30:e8:df:d0:cf:d4:ad:7d:f9:95:39:7e:
                    c5:4b
                Exponent: 65537 (0x10001)
        X509v3 extensions:
            X509v3 Extended Key Usage: 
                TLS Web Server Authentication
            X509v3 CRL Distribution Points: 
                Full Name:
                  URI:http://www.example.com/example_ca.crl
            X509v3 Certificate Policies: 
                Policy: 1.3.6.1.4.1.40808.1.3.2
            X509v3 Subject Key Identifier: 
                26:DF:A9:B4:32:6B:E2:3C:9E:68:E9:58:FE:9A:87:78:C1:15:73:DD
            X509v3 Authority Key Identifier: 
                EE:4C:51:B8:A4:48:A3:E7:68:C6:CC:21:31:58:5B:22:28:ED:E1:B9
    Signature Algorithm: sha256WithRSAEncryption
    Signature Value:
        23:73:56:1a:d4:e4:65:12:7a:e2:a9:d4:85:a2:1b:1e:26:f7:
        91:97:74:3f:a7:11:eb:56:c5:57:41:26:d2:cd:70:c7:c8:b3:
        b8:80:4d:9c:c6:ce:c9:5f:c4:52:45:5a:61:7e:d7:81:d5:cd:
        7e:0f:3d:6f:b9:7b:23:8b:5b:e1:29:9b:40:a4:69:40:32:22:
        c8:a1:09:9c:0f:ca:f3:77:48:c3:91:fe:ca:fd:4a:2d:f1:39:
        22:24:cb:53:13:8c:df:03:6f:95:d3:97:62:0a:43:ab:39:1d:
        a7:5c:47:00:f3:23:cb:9a:48:83:57:f7:64:38:a9:55:c8:cc:
        00:44:5d:81:ef:8e:36:28:19:8a:56:5e:46:dc:ab:ad:a8:ce:
        91:d4:37:ac:c4:86:69:9c:34:41:c4:79:8c:4d:13:5a:43:5b:
        26:3f:d7:09:55:58:ea:87:50:1d:b7:78:d1:74:4b:1b:0d:e1:
        2c:b3:02:1f:7b:b7:61:fe:7b:6b:c5:a3:49:ad:96:84:7c:bc:
        12:cc:41:e1:e5:8f:02:25:c2:b7:22:77:70:d5:b0:17:a6:66:
        21:7e:16:61:63:64:e0:50:c0:cf:09:5c:f7:80:6c:ca:01:c6:
        99:f8:17:65:dd:6a:e6:9e:a5:ab:f5:1d:03:56:82:c9:1f:37:
        28:9c:d4:ca
-----BEGIN CERTIFICATE-----
MIIENjCCAx6gAwIBAgIBATANBgkqhkiG9w0BAQsFADCBkzELMAkGA1UEBhMCRlIx
DzANBgNVBAgMBlJhZGl1czESMBAGA1UEBwwJU29tZXdoZXJlMRUwEwYDVQQKDAxF
eGFtcGxlIEluYy4xIDAeBgkqhkiG9w0BCQEWEWFkbWluQGV4YW1wbGUub3JnMSYw
JAYDVQQDDB1FeGFtcGxlIENlcnRpZmljYXRlIEF1dGhvcml0eTAeFw0yNTEyMDUw
NjMzMDhaFw0yNjAyMDMwNjMzMDhaMHwxCzAJBgNVBAYTAkZSMQ8wDQYDVQQIDAZS
YWRpdXMxFTATBgNVBAoMDEV4YW1wbGUgSW5jLjEjMCEGA1UEAwwaRXhhbXBsZSBT
ZXJ2ZXIgQ2VydGlmaWNhdGUxIDAeBgkqhkiG9w0BCQEWEWFkbWluQGV4YW1wbGUu
b3JnMIIBIjANBgkqhkiG9w0BAQEFAAOCAQ8AMIIBCgKCAQEA4zry3pASMEeU3Pov
z1nOVqWoPlfkIjuYlSTAf3/aNbPq6CJLUUhR9POZm9Fo/Mjj67VvgHQHG1RqZfnH
4DA+5orunn98yLybUe1vuyAQQC1T17LkG3SKuMOPalcv99+YPkGj1VVLUyuIJA8m
h8YH31PqUoRvkvXYNYSRbpaksJWqJ05aqf8SH13/PLnt5gUjM3tEDyTW8/1BclBn
f/4kzWw+Il/mGjTCnc4WdTZr5YjL7bTPjJ2rUiOJ/tTiMFmktD/8h3G/NYkG/2PS
4Pt0zM/Phyn3n9qUiwrqhoJnsgUv3Puchg6U1nb/JwHgkHc0/bAw6N/Qz9StffmV
OX7FSwIDAQABo4GqMIGnMBMGA1UdJQQMMAoGCCsGAQUFBwMBMDYGA1UdHwQvMC0w
K6ApoCeGJWh0dHA6Ly93d3cuZXhhbXBsZS5jb20vZXhhbXBsZV9jYS5jcmwwGAYD
VR0gBBEwDzANBgsrBgEEAYK+aAEDAjAdBgNVHQ4EFgQUJt+ptDJr4jyeaOlY/pqH
eMEVc90wHwYDVR0jBBgwFoAU7kxRuKRIo+doxswhMVhbIijt4bkwDQYJKoZIhvcN
AQELBQADggEBACNzVhrU5GUSeuKp1IWiGx4m95GXdD+nEetWxVdBJtLNcMfIs7iA
TZzGzslfxFJFWmF+14HVzX4PPW+5eyOLW+Epm0CkaUAyIsihCZwPyvN3SMOR/sr9
Si3xOSIky1MTjN8Db5XTl2IKQ6s5HadcRwDzI8uaSINX92Q4qVXIzABEXYHvjjYo
GYpWXkbcq62ozpHUN6zEhmmcNEHEeYxNE1pDWyY/1wlVWOqHUB23eNF0SxsN4Syz
Ah97t2H+e2vFo0mtloR8vBLMQeHljwIlwrcid3DVsBemZiF+FmFjZOBQwM8JXPeA
bMoBxpn4F2Xdauaepav1HQNWgskfNyic1Mo=
-----END CERTIFICATE-----
