Certificate:
    Data:
        Version: 3 (0x2)
        Serial Number: 2 (0x2)
        Signature Algorithm: sha256WithRSAEncryption
        Issuer: C=FR, ST=Radius, L=Somewhere, O=Example Inc./emailAddress=admin@example.org, CN=Example Certificate Authority
        Validity
            Not Before: Dec  5 06:33:08 2025 GMT
            Not After : Feb  3 06:33:08 2026 GMT
        Subject: C=FR, ST=Radius, O=Example Inc., CN=user@example.org/emailAddress=user@example.org
        Subject Public Key Info:
            Public Key Algorithm: rsaEncryption
                Public-Key: (2048 bit)
                Modulus:
                    00:e9:40:e9:b1:bf:1b:eb:f5:95:a2:ae:08:94:1e:
                    f8:0a:41:eb:4f:08:8e:de:43:ef:81:33:b5:71:4c:
                    ee:ee:65:a2:64:7a:6f:d9:0d:6c:26:89:6a:fc:da:
                    36:be:ea:da:cd:16:4f:ef:b5:4f:81:71:79:d5:bf:
                    52:63:8b:82:6b:2b:16:6b:ce:c1:86:ba:98:ce:17:
                    40:c4:32:93:82:ed:79:2c:8b:3f:98:de:06:8b:7b:
                    97:90:d4:5c:61:cc:23:21:d8:1e:c5:6e:8d:6a:45:
                    37:d4:17:13:b3:68:2f:e0:fe:19:78:32:86:67:ba:
                    f2:9d:ac:ca:a9:48:23:0e:31:2b:a9:36:50:53:64:
                    8f:fe:93:48:fa:df:ac:eb:19:47:e6:c5:4c:4b:ca:
                    98:9c:ca:c0:1a:30:e6:31:a7:88:ce:5e:c4:02:92:
                    02:03:86:7b:5c:3e:e4:11:de:cd:e6:f5:8c:e1:bb:
                    6a:2a:45:3d:28:f1:94:da:e4:c8:cd:13:a6:7f:bf:
                    ea:76:e8:db:49:5d:fd:1e:23:88:61:84:86:99:66:
                    7b:82:4f:cc:4d:40:e5:df:36:cd:f3:0a:00:4a:de:
                    bb:4f:2a:d2:c8:74:60:30:cb:c2:b6:d1:73:ec:19:
                    8c:33:eb:52:f1:47:97:7f:31:16:38:30:f1:90:57:
                    45:2b
                Exponent: 65537 (0x10001)
        X509v3 extensions:
            X509v3 Extended Key Usage: 
                TLS Web Client Authentication
            X509v3 CRL Distribution Points: 
                Full Name:
                  URI:http://www.example.com/example_ca.crl
            X509v3 Subject Key Identifier: 
                05:1A:8D:08:86:B2:FF:0C:96:16:B9:EF:F7:DC:F8:13:96:0B:CE:49
            X509v3 Authority Key Identifier: 
                EE:4C:51:B8:A4:48:A3:E7:68:C6:CC:21:31:58:5B:22:28:ED:E1:B9
    Signature Algorithm: sha256WithRSAEncryption
    Signature Value:
        2b:c5:c6:cf:40:76:33:bb:1c:74:ec:17:e5:3f:ee:d7:05:d0:
        83:49:b7:ea:b9:b2:4c:1a:a0:eb:5a:3f:fb:7a:27:a8:02:5e:
        b4:62:3b:1a:fb:1a:ff:4b:3a:ea:ed:c7:96:ec:83:29:2b:bc:
        69:8c:71:fe:3c:53:93:ec:2c:20:45:aa:70:8a:45:ff:b5:89:
        d0:69:fc:96:7a:5f:c6:ea:31:ea:34:be:b2:d0:96:12:32:22:
        00:dd:59:2c:88:7c:4f:c2:de:17:b8:35:b6:28:c7:63:58:5f:
        38:02:96:04:f9:5b:17:1a:bc:69:27:93:62:5f:5e:8f:bf:8b:
        98:03:ae:2c:b7:cb:73:28:a3:1b:cc:68:73:d6:5b:bc:f0:a9:
        31:eb:4c:65:12:21:5d:16:04:06:71:44:4d:ef:4b:1e:60:3c:
        03:a3:92:8c:4e:40:e1:20:93:ce:4a:20:7e:84:c0:9b:3a:95:
        66:05:aa:de:63:eb:71:3d:c8:9b:42:50:cc:15:e2:43:6e:48:
        bc:4c:01:00:03:22:51:fc:91:49:ee:18:e1:a4:f2:b8:e2:c7:
        16:41:1b:7a:bf:e0:07:72:ac:16:2f:e9:70:41:48:c7:36:8a:
        f8:5f:03:b6:a6:46:18:7e:5e:03:61:91:5c:6a:e3:9b:cf:a8:
        e2:46:7b:74
-----BEGIN CERTIFICATE-----
MIIEETCCAvmgAwIBAgIBAjANBgkqhkiG9w0BAQsFADCBkzELMAkGA1UEBhMCRlIx
DzANBgNVBAgMBlJhZGl1czESMBAGA1UEBwwJU29tZXdoZXJlMRUwEwYDVQQKDAxF
eGFtcGxlIEluYy4xIDAeBgkqhkiG9w0BCQEWEWFkbWluQGV4YW1wbGUub3JnMSYw
JAYDVQQDDB1FeGFtcGxlIENlcnRpZmljYXRlIEF1dGhvcml0eTAeFw0yNTEyMDUw
NjMzMDhaFw0yNjAyMDMwNjMzMDhaMHExCzAJBgNVBAYTAkZSMQ8wDQYDVQQIDAZS
YWRpdXMxFTATBgNVBAoMDEV4YW1wbGUgSW5jLjEZMBcGA1UEAwwQdXNlckBleGFt
cGxlLm9yZzEfMB0GCSqGSIb3DQEJARYQdXNlckBleGFtcGxlLm9yZzCCASIwDQYJ
KoZIhvcNAQEBBQADggEPADCCAQoCggEBAOlA6bG/G+v1laKuCJQe+ApB608Ijt5D
74EztXFM7u5lomR6b9kNbCaJavzaNr7q2s0WT++1T4FxedW/UmOLgmsrFmvOwYa6
mM4XQMQyk4LteSyLP5jeBot7l5DUXGHMIyHYHsVujWpFN9QXE7NoL+D+GXgyhme6
8p2syqlIIw4xK6k2UFNkj/6TSPrfrOsZR+bFTEvKmJzKwBow5jGniM5exAKSAgOG
e1w+5BHezeb1jOG7aipFPSjxlNrkyM0Tpn+/6nbo20ld/R4jiGGEhplme4JPzE1A
5d82zfMKAEreu08q0sh0YDDLwrbRc+wZjDPrUvFHl38xFjgw8ZBXRSsCAwEAAaOB
kDCBjTATBgNVHSUEDDAKBggrBgEFBQcDAjA2BgNVHR8ELzAtMCugKaAnhiVodHRw
Oi8vd3d3LmV4YW1wbGUuY29tL2V4YW1wbGVfY2EuY3JsMB0GA1UdDgQWBBQFGo0I
hrL/DJYWue/33PgTlgvOSTAfBgNVHSMEGDAWgBTuTFG4pEij52jGzCExWFsiKO3h
uTANBgkqhkiG9w0BAQsFAAOCAQEAK8XGz0B2M7scdOwX5T/u1wXQg0m36rmyTBqg
61o/+3onqAJetGI7Gvsa/0s66u3HluyDKSu8aYxx/jxTk+wsIEWqcIpF/7WJ0Gn8
lnpfxuox6jS+stCWEjIiAN1ZLIh8T8LeF7g1tijHY1hfOAKWBPlbFxq8aSeTYl9e
j7+LmAOuLLfLcyijG8xoc9ZbvPCpMetMZRIhXRYEBnFETe9LHmA8A6OSjE5A4SCT
zkogfoTAmzqVZgWq3mPrcT3Im0JQzBXiQ25IvEwBAAMiUfyRSe4Y4aTyuOLHFkEb
er/gB3KsFi/pcEFIxzaK+F8DtqZGGH5eA2GRXGrjm8+o4kZ7dA==
-----END CERTIFICATE-----
